target datalayout = "e-m:e-p270:32:32-p271:32:32-p272:64:64-i64:64-i128:128-f80:128-n8:16:32:64-S128"
target triple = "x86_64-pc-linux-gnu"

%"struct.cv::utils::trace::details::Region::LocationStaticStorage" = type { ptr, ptr, ptr, i32, i32 }
%"class.cv::utils::trace::details::Region" = type <{ ptr, i32, [4 x i8] }>
%union.Cv64suf = type { i64 }

@_ZZN2cv3hal12cpu_baseline6log64fEPKdPdiE25__cv_trace_location_fn832 = internal constant %"struct.cv::utils::trace::details::Region::LocationStaticStorage" { ptr @_ZZN2cv3hal12cpu_baseline6log64fEPKdPdiE31__cv_trace_location_extra_fn832, ptr @.str.15, ptr @.str.1, i32 832, i32 1 }, align 8

; Function Attrs: mustprogress uwtable
define hidden void @_ZN2cv3hal12cpu_baseline6log64fEPKdPdi(ptr noundef %0, ptr noundef %1, i32 noundef %2) #0 personality ptr @__gxx_personality_v0 {
  %4 = alloca ptr, align 8
  %5 = alloca ptr, align 8
  %6 = alloca i32, align 4
  %7 = alloca %"class.cv::utils::trace::details::Region", align 8
  %8 = alloca ptr, align 8
  %9 = alloca ptr, align 8
  %10 = alloca i32, align 4
  %11 = alloca i64, align 8
  %12 = alloca double, align 8
  %13 = alloca double, align 8
  %14 = alloca double, align 8
  %15 = alloca double, align 8
  %16 = alloca double, align 8
  %17 = alloca double, align 8
  %18 = alloca double, align 8
  %19 = alloca double, align 8
  %20 = alloca i32, align 4
  %21 = alloca %union.Cv64suf, align 8
  %22 = alloca i64, align 8
  %23 = alloca i32, align 4
  %24 = alloca double, align 8
  %25 = alloca double, align 8
  %26 = alloca double, align 8
  store ptr %0, ptr %4, align 8, !tbaa !23
  store ptr %1, ptr %5, align 8, !tbaa !23
  store i32 %2, ptr %6, align 4, !tbaa !8
  call void @llvm.lifetime.start.p0(i64 16, ptr %7) #14
  call void @_ZN2cv5utils5trace7details6RegionC1ERKNS3_21LocationStaticStorageE(ptr noundef nonnull align 8 dereferenceable(12) %7, ptr noundef nonnull align 8 dereferenceable(32) @_ZZN2cv3hal12cpu_baseline6log64fEPKdPdiE25__cv_trace_location_fn832)
  call void @llvm.lifetime.start.p0(i64 8, ptr %8) #14
  %27 = invoke noundef ptr @_ZN2cv7details12getLogTab64fEv()
          to label %28 unwind label %98

28:                                               ; preds = %3
  store ptr %27, ptr %8, align 8, !tbaa !23
  call void @llvm.lifetime.start.p0(i64 8, ptr %11) #14
  store i64 17592186044415, ptr %11, align 8, !tbaa !51
  call void @llvm.lifetime.start.p0(i64 8, ptr %12) #14
  store double 1.000000e+00, ptr %12, align 8, !tbaa !25
  call void @llvm.lifetime.start.p0(i64 8, ptr %13) #14
  store double -5.000000e-01, ptr %13, align 8, !tbaa !25
  call void @llvm.lifetime.start.p0(i64 8, ptr %14) #14
  store double 0x3FD5555555555555, ptr %14, align 8, !tbaa !25
  call void @llvm.lifetime.start.p0(i64 8, ptr %15) #14
  store double -2.500000e-01, ptr %15, align 8, !tbaa !25
  call void @llvm.lifetime.start.p0(i64 8, ptr %16) #14
  store double 2.000000e-01, ptr %16, align 8, !tbaa !25
  call void @llvm.lifetime.start.p0(i64 8, ptr %17) #14
  store double 0xBFC5555555555555, ptr %17, align 8, !tbaa !25
  call void @llvm.lifetime.start.p0(i64 8, ptr %18) #14
  store double 0x3FC2492492492493, ptr %18, align 8, !tbaa !25
  call void @llvm.lifetime.start.p0(i64 8, ptr %19) #14
  store double -1.250000e-01, ptr %19, align 8, !tbaa !25
  call void @llvm.lifetime.start.p0(i64 4, ptr %20) #14
  store i32 0, ptr %20, align 4, !tbaa !8
  br label %29

29:                                               ; preds = %95, %28
  %30 = load i32, ptr %20, align 4, !tbaa !8
  %31 = load i32, ptr %6, align 4, !tbaa !8
  %32 = icmp slt i32 %30, %31
  br i1 %32, label %33, label %102

33:                                               ; preds = %29
  call void @llvm.lifetime.start.p0(i64 8, ptr %21) #14
  call void @llvm.lifetime.start.p0(i64 8, ptr %22) #14
  %34 = load ptr, ptr %4, align 8, !tbaa !23
  %35 = load i32, ptr %20, align 4, !tbaa !8
  %36 = sext i32 %35 to i64
  %37 = getelementptr inbounds i64, ptr %34, i64 %36
  %38 = load i64, ptr %37, align 8, !tbaa !51
  store i64 %38, ptr %22, align 8, !tbaa !51
  %39 = load i64, ptr %22, align 8, !tbaa !51
  %40 = and i64 %39, 17592186044415
  %41 = or i64 %40, 4607182418800017408
  store i64 %41, ptr %21, align 8, !tbaa !45
  call void @llvm.lifetime.start.p0(i64 4, ptr %23) #14
  %42 = load i64, ptr %22, align 8, !tbaa !51
  %43 = ashr i64 %42, 43
  %44 = trunc i64 %43 to i32
  %45 = and i32 %44, 510
  store i32 %45, ptr %23, align 4, !tbaa !8
  call void @llvm.lifetime.start.p0(i64 8, ptr %24) #14
  %46 = load i64, ptr %22, align 8, !tbaa !51
  %47 = ashr i64 %46, 52
  %48 = trunc i64 %47 to i32
  %49 = and i32 %48, 2047
  %50 = sub nsw i32 %49, 1023
  %51 = sitofp i32 %50 to double
  %52 = load ptr, ptr %8, align 8, !tbaa !23
  %53 = load i32, ptr %23, align 4, !tbaa !8
  %54 = sext i32 %53 to i64
  %55 = getelementptr inbounds double, ptr %52, i64 %54
  %56 = load double, ptr %55, align 8, !tbaa !25
  %57 = call double @llvm.fmuladd.f64(double %51, double 0x3FE62E42FEFA39EF, double %56)
  store double %57, ptr %24, align 8, !tbaa !25
  call void @llvm.lifetime.start.p0(i64 8, ptr %25) #14
  %58 = load double, ptr %21, align 8, !tbaa !45
  %59 = fsub double %58, 1.000000e+00
  %60 = load ptr, ptr %8, align 8, !tbaa !23
  %61 = load i32, ptr %23, align 4, !tbaa !8
  %62 = add nsw i32 %61, 1
  %63 = sext i32 %62 to i64
  %64 = getelementptr inbounds double, ptr %60, i64 %63
  %65 = load double, ptr %64, align 8, !tbaa !25
  %66 = load i32, ptr %23, align 4, !tbaa !8
  %67 = icmp eq i32 %66, 510
  %68 = select i1 %67, double 0xBF60000000000000, double 0.000000e+00
  %69 = call double @llvm.fmuladd.f64(double %59, double %65, double %68)
  store double %69, ptr %25, align 8, !tbaa !25
  call void @llvm.lifetime.start.p0(i64 8, ptr %26) #14
  %70 = load double, ptr %25, align 8, !tbaa !25
  %71 = load double, ptr %25, align 8, !tbaa !25
  %72 = fmul double %70, %71
  store double %72, ptr %26, align 8, !tbaa !25
  %73 = load double, ptr %26, align 8, !tbaa !25
  %74 = call double @llvm.fmuladd.f64(double -1.250000e-01, double %73, double 0xBFC5555555555555)
  %75 = load double, ptr %26, align 8, !tbaa !25
  %76 = call double @llvm.fmuladd.f64(double %74, double %75, double -2.500000e-01)
  %77 = load double, ptr %26, align 8, !tbaa !25
  %78 = call double @llvm.fmuladd.f64(double %76, double %77, double -5.000000e-01)
  %79 = load double, ptr %26, align 8, !tbaa !25
  %80 = load double, ptr %26, align 8, !tbaa !25
  %81 = call double @llvm.fmuladd.f64(double 0x3FC2492492492493, double %80, double 2.000000e-01)
  %82 = load double, ptr %26, align 8, !tbaa !25
  %83 = call double @llvm.fmuladd.f64(double %81, double %82, double 0x3FD5555555555555)
  %84 = load double, ptr %26, align 8, !tbaa !25
  %85 = call double @llvm.fmuladd.f64(double %83, double %84, double 1.000000e+00)
  %86 = load double, ptr %25, align 8, !tbaa !25
  %87 = fmul double %85, %86
  %88 = call double @llvm.fmuladd.f64(double %78, double %79, double %87)
  %89 = load double, ptr %24, align 8, !tbaa !25
  %90 = fadd double %88, %89
  %91 = load ptr, ptr %5, align 8, !tbaa !23
  %92 = load i32, ptr %20, align 4, !tbaa !8
  %93 = sext i32 %92 to i64
  %94 = getelementptr inbounds double, ptr %91, i64 %93
  store double %90, ptr %94, align 8, !tbaa !25
  call void @llvm.lifetime.end.p0(i64 8, ptr %26) #14
  call void @llvm.lifetime.end.p0(i64 8, ptr %25) #14
  call void @llvm.lifetime.end.p0(i64 8, ptr %24) #14
  call void @llvm.lifetime.end.p0(i64 4, ptr %23) #14
  call void @llvm.lifetime.end.p0(i64 8, ptr %22) #14
  call void @llvm.lifetime.end.p0(i64 8, ptr %21) #14
  br label %95

95:                                               ; preds = %33
  %96 = load i32, ptr %20, align 4, !tbaa !8
  %97 = add nsw i32 %96, 1
  store i32 %97, ptr %20, align 4, !tbaa !8
  br label %29, !llvm.loop !53

98:                                               ; preds = %3
  %99 = landingpad { ptr, i32 }
          cleanup
  %100 = extractvalue { ptr, i32 } %99, 0
  store ptr %100, ptr %9, align 8
  %101 = extractvalue { ptr, i32 } %99, 1
  store i32 %101, ptr %10, align 4
  call void @llvm.lifetime.end.p0(i64 8, ptr %8) #14
  call void @_ZN2cv5utils5trace7details6RegionD2Ev(ptr noundef nonnull align 8 dereferenceable(12) %7) #14
  call void @llvm.lifetime.end.p0(i64 16, ptr %7) #14
  br label %103

102:                                              ; preds = %29
  call void @llvm.lifetime.end.p0(i64 4, ptr %20) #14
  call void @llvm.lifetime.end.p0(i64 8, ptr %19) #14
  call void @llvm.lifetime.end.p0(i64 8, ptr %18) #14
  call void @llvm.lifetime.end.p0(i64 8, ptr %17) #14
  call void @llvm.lifetime.end.p0(i64 8, ptr %16) #14
  call void @llvm.lifetime.end.p0(i64 8, ptr %15) #14
  call void @llvm.lifetime.end.p0(i64 8, ptr %14) #14
  call void @llvm.lifetime.end.p0(i64 8, ptr %13) #14
  call void @llvm.lifetime.end.p0(i64 8, ptr %12) #14
  call void @llvm.lifetime.end.p0(i64 8, ptr %11) #14
  call void @llvm.lifetime.end.p0(i64 8, ptr %8) #14
  call void @_ZN2cv5utils5trace7details6RegionD2Ev(ptr noundef nonnull align 8 dereferenceable(12) %7) #14
  call void @llvm.lifetime.end.p0(i64 16, ptr %7) #14
  ret void

103:                                              ; preds = %98
  %104 = load ptr, ptr %9, align 8
  %105 = load i32, ptr %10, align 4
  %106 = insertvalue { ptr, i32 } poison, ptr %104, 0
  %107 = insertvalue { ptr, i32 } %106, i32 %105, 1
  resume { ptr, i32 } %107
}