; Function Attrs: mustprogress uwtable
define hidden void @_ZN2cv3hal12cpu_baseline6log64fEPKdPdi(ptr noundef readonly captures(none) %0, ptr noundef writeonly captures(none) %1, i32 noundef %2) local_unnamed_addr #0 personality ptr @__gxx_personality_v0 {
  %4 = alloca %"class.cv::utils::trace::details::Region", align 8
  call void @llvm.lifetime.start.p0(i64 16, ptr nonnull %4) #12
  call void @_ZN2cv5utils5trace7details6RegionC1ERKNS3_21LocationStaticStorageE(ptr noundef nonnull align 8 dereferenceable(12) %4, ptr noundef nonnull align 8 dereferenceable(32) @_ZZN2cv3hal12cpu_baseline6log64fEPKdPdiE25__cv_trace_location_fn832)
  %5 = invoke noundef ptr @_ZN2cv7details12getLogTab64fEv()
          to label %.preheader unwind label %43

.preheader:                                       ; preds = %3
  %6 = icmp sgt i32 %2, 0
  br i1 %6, label %.lr.ph.preheader, label %._crit_edge

.lr.ph.preheader:                                 ; preds = %.preheader
  %wide.trip.count = zext nneg i32 %2 to i64
  br label %.lr.ph

.lr.ph:                                           ; preds = %.lr.ph.preheader, %.lr.ph
  %indvars.iv = phi i64 [ 0, %.lr.ph.preheader ], [ %indvars.iv.next, %.lr.ph ]
  %7 = getelementptr inbounds nuw i64, ptr %0, i64 %indvars.iv
  %8 = load i64, ptr %7, align 8, !tbaa !35
  %9 = and i64 %8, 17592186044415
  %10 = or disjoint i64 %9, 4607182418800017408
  %11 = lshr i64 %8, 43
  %12 = trunc nuw nsw i64 %11 to i32
  %13 = and i32 %12, 510
  %14 = lshr i64 %8, 52
  %15 = trunc nuw nsw i64 %14 to i32
  %16 = and i32 %15, 2047
  %17 = add nsw i32 %16, -1023
  %18 = sitofp i32 %17 to double
  %19 = and i64 %11, 510
  %20 = getelementptr inbounds nuw double, ptr %5, i64 %19
  %21 = load double, ptr %20, align 8, !tbaa !14
  %22 = call double @llvm.fmuladd.f64(double %18, double 0x3FE62E42FEFA39EF, double %21)
  %23 = bitcast i64 %10 to double
  %24 = fadd double %23, -1.000000e+00
  %25 = or disjoint i32 %13, 1
  %26 = zext nneg i32 %25 to i64
  %27 = getelementptr inbounds nuw double, ptr %5, i64 %26
  %28 = load double, ptr %27, align 8, !tbaa !14
  %29 = icmp eq i32 %13, 510
  %30 = select i1 %29, double 0xBF60000000000000, double 0.000000e+00
  %31 = call double @llvm.fmuladd.f64(double %24, double %28, double %30)
  %32 = fmul double %31, %31
  %33 = call double @llvm.fmuladd.f64(double %32, double -1.250000e-01, double 0xBFC5555555555555)
  %34 = call double @llvm.fmuladd.f64(double %33, double %32, double -2.500000e-01)
  %35 = call double @llvm.fmuladd.f64(double %34, double %32, double -5.000000e-01)
  %36 = call double @llvm.fmuladd.f64(double %32, double 0x3FC2492492492493, double 2.000000e-01)
  %37 = call double @llvm.fmuladd.f64(double %36, double %32, double 0x3FD5555555555555)
  %38 = call double @llvm.fmuladd.f64(double %37, double %32, double 1.000000e+00)
  %39 = fmul double %31, %38
  %40 = call double @llvm.fmuladd.f64(double %35, double %32, double %39)
  %41 = fadd double %22, %40
  %42 = getelementptr inbounds nuw double, ptr %1, i64 %indvars.iv
  store double %41, ptr %42, align 8, !tbaa !14
  %indvars.iv.next = add nuw nsw i64 %indvars.iv, 1
  %exitcond.not = icmp eq i64 %indvars.iv.next, %wide.trip.count
  br i1 %exitcond.not, label %._crit_edge, label %.lr.ph, !llvm.loop !37

43:                                               ; preds = %3
  %44 = landingpad { ptr, i32 }
          cleanup
  call void @_ZN2cv5utils5trace7details6RegionD2Ev(ptr noundef nonnull align 8 dereferenceable(12) %4) #12
  call void @llvm.lifetime.end.p0(i64 16, ptr nonnull %4) #12
  resume { ptr, i32 } %44

._crit_edge:                                      ; preds = %.lr.ph, %.preheader
  %45 = getelementptr inbounds nuw i8, ptr %4, i64 8
  %46 = load i32, ptr %45, align 8, !tbaa !9
  %.not.i = icmp eq i32 %46, 0
  br i1 %.not.i, label %_ZN2cv5utils5trace7details6RegionD2Ev.exit, label %47

47:                                               ; preds = %._crit_edge
  invoke void @_ZN2cv5utils5trace7details6Region7destroyEv(ptr noundef nonnull align 8 dereferenceable(12) %4)
          to label %_ZN2cv5utils5trace7details6RegionD2Ev.exit unwind label %48

48:                                               ; preds = %47
  %49 = landingpad { ptr, i32 }
          catch ptr null
  %50 = extractvalue { ptr, i32 } %49, 0
  call void @__clang_call_terminate(ptr %50) #13
  unreachable

_ZN2cv5utils5trace7details6RegionD2Ev.exit:       ; preds = %._crit_edge, %47
  call void @llvm.lifetime.end.p0(i64 16, ptr nonnull %4) #12
  ret void
}